; Function Attrs: mustprogress uwtable
define hidden void @_ZN4cvc58internal13FloatingPoint13makeMaxNormalERKNS0_17FloatingPointSizeEb(ptr dead_on_unwind noalias writable writeonly sret(%"class.cvc5::internal::FloatingPoint") align 8 captures(none) %0, ptr noundef nonnull align 4 dereferenceable(8) %1, i1 noundef zeroext %2) local_unnamed_addr #3 align 2 personality ptr @__gxx_personality_v0 {
  %4 = alloca %"class.cvc5::internal::BitVector", align 8
  %5 = alloca %"class.cvc5::internal::BitVector", align 8
  %6 = alloca %"class.cvc5::internal::BitVector", align 8
  %7 = alloca %"class.cvc5::internal::BitVector", align 8
  %8 = alloca %"class.cvc5::internal::BitVector", align 8
  call void @llvm.lifetime.start.p0(i64 24, ptr nonnull %4) #20
  br i1 %2, label %9, label %10

9:                                                ; preds = %3
  call void @_ZN4cvc58internal9BitVector5mkOneEj(ptr dead_on_unwind nonnull writable sret(%"class.cvc5::internal::BitVector") align 8 %4, i32 noundef 1)
  br label %11

10:                                               ; preds = %3
  call void @_ZN4cvc58internal9BitVector6mkZeroEj(ptr dead_on_unwind nonnull writable sret(%"class.cvc5::internal::BitVector") align 8 %4, i32 noundef 1)
  br label %11

11:                                               ; preds = %9, %10
  call void @llvm.lifetime.start.p0(i64 24, ptr nonnull %5) #20
  %12 = load i32, ptr %1, align 4, !tbaa !36
  invoke void @_ZN4cvc58internal9BitVector6mkOnesEj(ptr dead_on_unwind nonnull writable sret(%"class.cvc5::internal::BitVector") align 8 %5, i32 noundef %12)
          to label %13 unwind label %46

13:                                               ; preds = %11
  %14 = invoke noundef nonnull align 8 dereferenceable(24) ptr @_ZN4cvc58internal9BitVector6setBitEjb(ptr noundef nonnull align 8 dereferenceable(24) %5, i32 noundef 0, i1 noundef zeroext false)
          to label %15 unwind label %48

15:                                               ; preds = %13
  call void @llvm.lifetime.start.p0(i64 24, ptr nonnull %6) #20
  %16 = getelementptr inbounds nuw i8, ptr %1, i64 4
  %17 = load i32, ptr %16, align 4, !tbaa !33
  %18 = add i32 %17, -1
  invoke void @_ZN4cvc58internal9BitVector6mkOnesEj(ptr dead_on_unwind nonnull writable sret(%"class.cvc5::internal::BitVector") align 8 %6, i32 noundef %18)
          to label %19 unwind label %50

19:                                               ; preds = %15
  call void @llvm.lifetime.start.p0(i64 24, ptr nonnull %7) #20
  call void @llvm.lifetime.start.p0(i64 24, ptr nonnull %8) #20
  invoke void @_ZNK4cvc58internal9BitVector6concatERKS1_(ptr dead_on_unwind nonnull writable sret(%"class.cvc5::internal::BitVector") align 8 %8, ptr noundef nonnull align 8 dereferenceable(24) %4, ptr noundef nonnull align 8 dereferenceable(24) %5)
          to label %20 unwind label %52

20:                                               ; preds = %19
  invoke void @_ZNK4cvc58internal9BitVector6concatERKS1_(ptr dead_on_unwind nonnull writable sret(%"class.cvc5::internal::BitVector") align 8 %7, ptr noundef nonnull align 8 dereferenceable(24) %8, ptr noundef nonnull align 8 dereferenceable(24) %6)
          to label %21 unwind label %54

21:                                               ; preds = %20
  %22 = invoke noalias noundef nonnull dereferenceable(64) ptr @_Znwm(i64 noundef 64) #17
          to label %.noexc unwind label %56

.noexc:                                           ; preds = %21
  invoke void @_ZN4cvc58internal20FloatingPointLiteralC1ERKNS0_17FloatingPointSizeERKNS0_9BitVectorE(ptr noundef nonnull align 8 dereferenceable(64) %22, ptr noundef nonnull align 4 dereferenceable(8) %1, ptr noundef nonnull align 8 dereferenceable(24) %7)
          to label %25 unwind label %23

23:                                               ; preds = %.noexc
  %24 = landingpad { ptr, i32 }
          cleanup
  call void @_ZdlPvm(ptr noundef nonnull %22, i64 noundef 64) #18
  br label %.body

25:                                               ; preds = %.noexc
  store ptr %22, ptr %0, align 8, !tbaa !3
  %26 = getelementptr inbounds nuw i8, ptr %7, i64 8
  invoke void @__gmpz_clear(ptr noundef nonnull align 8 dereferenceable(16) %26)
          to label %_ZN4cvc58internal9BitVectorD2Ev.exit unwind label %27

27:                                               ; preds = %25
  %28 = landingpad { ptr, i32 }
          catch ptr null
  %29 = extractvalue { ptr, i32 } %28, 0
  call void @__clang_call_terminate(ptr %29) #19
  unreachable

_ZN4cvc58internal9BitVectorD2Ev.exit:             ; preds = %25
  %30 = getelementptr inbounds nuw i8, ptr %8, i64 8
  invoke void @__gmpz_clear(ptr noundef nonnull align 8 dereferenceable(16) %30)
          to label %_ZN4cvc58internal9BitVectorD2Ev.exit15 unwind label %31

31:                                               ; preds = %_ZN4cvc58internal9BitVectorD2Ev.exit
  %32 = landingpad { ptr, i32 }
          catch ptr null
  %33 = extractvalue { ptr, i32 } %32, 0
  call void @__clang_call_terminate(ptr %33) #19
  unreachable

_ZN4cvc58internal9BitVectorD2Ev.exit15:           ; preds = %_ZN4cvc58internal9BitVectorD2Ev.exit
  call void @llvm.lifetime.end.p0(i64 24, ptr nonnull %8) #20
  call void @llvm.lifetime.end.p0(i64 24, ptr nonnull %7) #20
  %34 = getelementptr inbounds nuw i8, ptr %6, i64 8
  invoke void @__gmpz_clear(ptr noundef nonnull align 8 dereferenceable(16) %34)
          to label %_ZN4cvc58internal9BitVectorD2Ev.exit16 unwind label %35

35:                                               ; preds = %_ZN4cvc58internal9BitVectorD2Ev.exit15
  %36 = landingpad { ptr, i32 }
          catch ptr null
  %37 = extractvalue { ptr, i32 } %36, 0
  call void @__clang_call_terminate(ptr %37) #19
  unreachable

_ZN4cvc58internal9BitVectorD2Ev.exit16:           ; preds = %_ZN4cvc58internal9BitVectorD2Ev.exit15
  call void @llvm.lifetime.end.p0(i64 24, ptr nonnull %6) #20
  %38 = getelementptr inbounds nuw i8, ptr %5, i64 8
  invoke void @__gmpz_clear(ptr noundef nonnull align 8 dereferenceable(16) %38)
          to label %_ZN4cvc58internal9BitVectorD2Ev.exit17 unwind label %39

39:                                               ; preds = %_ZN4cvc58internal9BitVectorD2Ev.exit16
  %40 = landingpad { ptr, i32 }
          catch ptr null
  %41 = extractvalue { ptr, i32 } %40, 0
  call void @__clang_call_terminate(ptr %41) #19
  unreachable

_ZN4cvc58internal9BitVectorD2Ev.exit17:           ; preds = %_ZN4cvc58internal9BitVectorD2Ev.exit16
  call void @llvm.lifetime.end.p0(i64 24, ptr nonnull %5) #20
  %42 = getelementptr inbounds nuw i8, ptr %4, i64 8
  invoke void @__gmpz_clear(ptr noundef nonnull align 8 dereferenceable(16) %42)
          to label %_ZN4cvc58internal9BitVectorD2Ev.exit18 unwind label %43

43:                                               ; preds = %_ZN4cvc58internal9BitVectorD2Ev.exit17
  %44 = landingpad { ptr, i32 }
          catch ptr null
  %45 = extractvalue { ptr, i32 } %44, 0
  call void @__clang_call_terminate(ptr %45) #19
  unreachable

_ZN4cvc58internal9BitVectorD2Ev.exit18:           ; preds = %_ZN4cvc58internal9BitVectorD2Ev.exit17
  call void @llvm.lifetime.end.p0(i64 24, ptr nonnull %4) #20
  ret void

46:                                               ; preds = %11
  %47 = landingpad { ptr, i32 }
          cleanup
  br label %_ZN4cvc58internal9BitVectorD2Ev.exit22

48:                                               ; preds = %13
  %49 = landingpad { ptr, i32 }
          cleanup
  br label %70

50:                                               ; preds = %15
  %51 = landingpad { ptr, i32 }
          cleanup
  br label %_ZN4cvc58internal9BitVectorD2Ev.exit21

52:                                               ; preds = %19
  %53 = landingpad { ptr, i32 }
          cleanup
  br label %_ZN4cvc58internal9BitVectorD2Ev.exit20

54:                                               ; preds = %20
  %55 = landingpad { ptr, i32 }
          cleanup
  br label %_ZN4cvc58internal9BitVectorD2Ev.exit19

56:                                               ; preds = %21
  %57 = landingpad { ptr, i32 }
          cleanup
  br label %.body

.body:                                            ; preds = %23, %56
  %eh.lpad-body = phi { ptr, i32 } [ %57, %56 ], [ %24, %23 ]
  %58 = getelementptr inbounds nuw i8, ptr %7, i64 8
  invoke void @__gmpz_clear(ptr noundef nonnull align 8 dereferenceable(16) %58)
          to label %_ZN4cvc58internal9BitVectorD2Ev.exit19 unwind label %59

59:                                               ; preds = %.body
  %60 = landingpad { ptr, i32 }
          catch ptr null
  %61 = extractvalue { ptr, i32 } %60, 0
  call void @__clang_call_terminate(ptr %61) #19
  unreachable

_ZN4cvc58internal9BitVectorD2Ev.exit19:           ; preds = %.body, %54
  %.pn = phi { ptr, i32 } [ %55, %54 ], [ %eh.lpad-body, %.body ]
  %62 = getelementptr inbounds nuw i8, ptr %8, i64 8
  invoke void @__gmpz_clear(ptr noundef nonnull align 8 dereferenceable(16) %62)
          to label %_ZN4cvc58internal9BitVectorD2Ev.exit20 unwind label %63

63:                                               ; preds = %_ZN4cvc58internal9BitVectorD2Ev.exit19
  %64 = landingpad { ptr, i32 }
          catch ptr null
  %65 = extractvalue { ptr, i32 } %64, 0
  call void @__clang_call_terminate(ptr %65) #19
  unreachable

_ZN4cvc58internal9BitVectorD2Ev.exit20:           ; preds = %_ZN4cvc58internal9BitVectorD2Ev.exit19, %52
  %.pn.pn = phi { ptr, i32 } [ %53, %52 ], [ %.pn, %_ZN4cvc58internal9BitVectorD2Ev.exit19 ]
  call void @llvm.lifetime.end.p0(i64 24, ptr nonnull %8) #20
  call void @llvm.lifetime.end.p0(i64 24, ptr nonnull %7) #20
  %66 = getelementptr inbounds nuw i8, ptr %6, i64 8
  invoke void @__gmpz_clear(ptr noundef nonnull align 8 dereferenceable(16) %66)
          to label %_ZN4cvc58internal9BitVectorD2Ev.exit21 unwind label %67

67:                                               ; preds = %_ZN4cvc58internal9BitVectorD2Ev.exit20
  %68 = landingpad { ptr, i32 }
          catch ptr null
  %69 = extractvalue { ptr, i32 } %68, 0
  call void @__clang_call_terminate(ptr %69) #19
  unreachable

_ZN4cvc58internal9BitVectorD2Ev.exit21:           ; preds = %_ZN4cvc58internal9BitVectorD2Ev.exit20, %50
  %.pn.pn.pn = phi { ptr, i32 } [ %51, %50 ], [ %.pn.pn, %_ZN4cvc58internal9BitVectorD2Ev.exit20 ]
  call void @llvm.lifetime.end.p0(i64 24, ptr nonnull %6) #20
  br label %70

70:                                               ; preds = %_ZN4cvc58internal9BitVectorD2Ev.exit21, %48
  %.pn.pn.pn.pn = phi { ptr, i32 } [ %.pn.pn.pn, %_ZN4cvc58internal9BitVectorD2Ev.exit21 ], [ %49, %48 ]
  %71 = getelementptr inbounds nuw i8, ptr %5, i64 8
  invoke void @__gmpz_clear(ptr noundef nonnull align 8 dereferenceable(16) %71)
          to label %_ZN4cvc58internal9BitVectorD2Ev.exit22 unwind label %72

72:                                               ; preds = %70
  %73 = landingpad { ptr, i32 }
          catch ptr null
  %74 = extractvalue { ptr, i32 } %73, 0
  call void @__clang_call_terminate(ptr %74) #19
  unreachable

_ZN4cvc58internal9BitVectorD2Ev.exit22:           ; preds = %70, %46
  %.pn.pn.pn.pn.pn = phi { ptr, i32 } [ %47, %46 ], [ %.pn.pn.pn.pn, %70 ]
  call void @llvm.lifetime.end.p0(i64 24, ptr nonnull %5) #20
  %75 = getelementptr inbounds nuw i8, ptr %4, i64 8
  invoke void @__gmpz_clear(ptr noundef nonnull align 8 dereferenceable(16) %75)
          to label %_ZN4cvc58internal9BitVectorD2Ev.exit23 unwind label %76

76:                                               ; preds = %_ZN4cvc58internal9BitVectorD2Ev.exit22
  %77 = landingpad { ptr, i32 }
          catch ptr null
  %78 = extractvalue { ptr, i32 } %77, 0
  call void @__clang_call_terminate(ptr %78) #19
  unreachable

_ZN4cvc58internal9BitVectorD2Ev.exit23:           ; preds = %_ZN4cvc58internal9BitVectorD2Ev.exit22
  call void @llvm.lifetime.end.p0(i64 24, ptr nonnull %4) #20
  resume { ptr, i32 } %.pn.pn.pn.pn.pn
}